target datalayout = "e-m:e-p270:32:32-p271:32:32-p272:64:64-i64:64-i128:128-f80:128-n8:16:32:64-S128"
target triple = "x86_64-pc-linux-gnu"

%"class.cv::Point_" = type { i32, i32 }
%"class.cv::Size_" = type { i32, i32 }
%"class.cv::Mat" = type { i32, i32, i32, i32, ptr, ptr, ptr, ptr, ptr, ptr, %"struct.cv::MatSize", %"struct.cv::MatStep" }
%"struct.cv::MatSize" = type { ptr }
%"struct.cv::MatStep" = type { ptr, [2 x i64] }
%struct.ContourScanner_ = type { %"class.cv::Mat", %"class.cv::Point_", %"class.cv::Point_", %"class.cv::Point_", i8, i32, i32, i32, %"class.cv::Tree", %"struct.std::array" }
%"class.cv::Tree" = type { %"class.std::vector" }
%"class.std::vector" = type { %"struct.std::_Vector_base" }
%"struct.std::_Vector_base" = type { %"struct.std::_Vector_base<cv::TreeNode<cv::Contour>, std::allocator<cv::TreeNode<cv::Contour>>>::_Vector_impl" }
%"struct.std::_Vector_base<cv::TreeNode<cv::Contour>, std::allocator<cv::TreeNode<cv::Contour>>>::_Vector_impl" = type { %"struct.std::_Vector_base<cv::TreeNode<cv::Contour>, std::allocator<cv::TreeNode<cv::Contour>>>::_Vector_impl_data" }
%"struct.std::_Vector_base<cv::TreeNode<cv::Contour>, std::allocator<cv::TreeNode<cv::Contour>>>::_Vector_impl_data" = type { ptr, ptr, ptr }
%"struct.std::array" = type { [128 x i32] }

; Function Attrs: inlinehint mustprogress nounwind uwtable
define linkonce_odr hidden void @_ZN2cv5Size_IiEC2Eii(ptr noundef nonnull align 4 dereferenceable(8) %0, i32 noundef %1, i32 noundef %2) unnamed_addr #4 comdat align 2 {
  %4 = alloca ptr, align 8
  %5 = alloca i32, align 4
  %6 = alloca i32, align 4
  store ptr %0, ptr %4, align 8, !tbaa !73
  store i32 %1, ptr %5, align 4, !tbaa !8
  store i32 %2, ptr %6, align 4, !tbaa !8
  %7 = load ptr, ptr %4, align 8
  %8 = getelementptr inbounds nuw %"class.cv::Size_", ptr %7, i32 0, i32 0
  %9 = load i32, ptr %5, align 4, !tbaa !8
  store i32 %9, ptr %8, align 4, !tbaa !77
  %10 = getelementptr inbounds nuw %"class.cv::Size_", ptr %7, i32 0, i32 1
  %11 = load i32, ptr %6, align 4, !tbaa !8
  store i32 %11, ptr %10, align 4, !tbaa !15
  ret void
}

; Function Attrs: inlinehint mustprogress nounwind uwtable
define linkonce_odr hidden noundef nonnull align 1 dereferenceable(1) ptr @_ZN2cv3Mat2atIaEERT_ii(ptr noundef nonnull align 8 dereferenceable(96) %0, i32 noundef %1, i32 noundef %2) #4 comdat align 2 {
  %4 = alloca ptr, align 8
  %5 = alloca i32, align 4
  %6 = alloca i32, align 4
  store ptr %0, ptr %4, align 8, !tbaa !13
  store i32 %1, ptr %5, align 4, !tbaa !8
  store i32 %2, ptr %6, align 4, !tbaa !8
  %7 = load ptr, ptr %4, align 8
  %8 = getelementptr inbounds nuw %"class.cv::Mat", ptr %7, i32 0, i32 4
  %9 = load ptr, ptr %8, align 8, !tbaa !105
  %10 = getelementptr inbounds nuw %"class.cv::Mat", ptr %7, i32 0, i32 11
  %11 = getelementptr inbounds nuw %"struct.cv::MatStep", ptr %10, i32 0, i32 0
  %12 = load ptr, ptr %11, align 8, !tbaa !106
  %13 = getelementptr inbounds i64, ptr %12, i64 0
  %14 = load i64, ptr %13, align 8, !tbaa !68
  %15 = load i32, ptr %5, align 4, !tbaa !8
  %16 = sext i32 %15 to i64
  %17 = mul i64 %14, %16
  %18 = getelementptr inbounds nuw i8, ptr %9, i64 %17
  %19 = load i32, ptr %6, align 4, !tbaa !8
  %20 = sext i32 %19 to i64
  %21 = getelementptr inbounds i8, ptr %18, i64 %20
  ret ptr %21
}

; Function Attrs: inlinehint mustprogress nounwind uwtable
define linkonce_odr hidden noundef nonnull align 4 dereferenceable(4) ptr @_ZN2cv3Mat2atIiEERT_ii(ptr noundef nonnull align 8 dereferenceable(96) %0, i32 noundef %1, i32 noundef %2) #4 comdat align 2 {
  %4 = alloca ptr, align 8
  %5 = alloca i32, align 4
  %6 = alloca i32, align 4
  store ptr %0, ptr %4, align 8, !tbaa !13
  store i32 %1, ptr %5, align 4, !tbaa !8
  store i32 %2, ptr %6, align 4, !tbaa !8
  %7 = load ptr, ptr %4, align 8
  %8 = getelementptr inbounds nuw %"class.cv::Mat", ptr %7, i32 0, i32 4
  %9 = load ptr, ptr %8, align 8, !tbaa !105
  %10 = getelementptr inbounds nuw %"class.cv::Mat", ptr %7, i32 0, i32 11
  %11 = getelementptr inbounds nuw %"struct.cv::MatStep", ptr %10, i32 0, i32 0
  %12 = load ptr, ptr %11, align 8, !tbaa !106
  %13 = getelementptr inbounds i64, ptr %12, i64 0
  %14 = load i64, ptr %13, align 8, !tbaa !68
  %15 = load i32, ptr %5, align 4, !tbaa !8
  %16 = sext i32 %15 to i64
  %17 = mul i64 %14, %16
  %18 = getelementptr inbounds nuw i8, ptr %9, i64 %17
  %19 = load i32, ptr %6, align 4, !tbaa !8
  %20 = sext i32 %19 to i64
  %21 = getelementptr inbounds i32, ptr %18, i64 %20
  ret ptr %21
}

; Function Attrs: inlinehint mustprogress nounwind uwtable
define linkonce_odr hidden noundef zeroext i1 @_ZNK15ContourScanner_5isIntEv(ptr noundef nonnull align 8 dereferenceable(672) %0) #4 comdat align 2 {
  %2 = alloca ptr, align 8
  store ptr %0, ptr %2, align 8, !tbaa !85
  %3 = load ptr, ptr %2, align 8
  %4 = getelementptr inbounds nuw %struct.ContourScanner_, ptr %3, i32 0, i32 7
  %5 = load i32, ptr %4, align 4, !tbaa !17
  %6 = icmp eq i32 %5, 4
  ret i1 %6
}

; Function Attrs: inlinehint mustprogress uwtable
define linkonce_odr hidden i64 @_ZNK2cv7MatSizeclEv(ptr noundef nonnull align 8 dereferenceable(8) %0) #8 comdat align 2 {
  %2 = alloca %"class.cv::Size_", align 4
  %3 = alloca ptr, align 8
  store ptr %0, ptr %3, align 8, !tbaa !54
  %4 = load ptr, ptr %3, align 8
  %5 = getelementptr inbounds nuw %"struct.cv::MatSize", ptr %4, i32 0, i32 0
  %6 = load ptr, ptr %5, align 8, !tbaa !56
  %7 = getelementptr inbounds i32, ptr %6, i64 1
  %8 = load i32, ptr %7, align 4, !tbaa !8
  %9 = getelementptr inbounds nuw %"struct.cv::MatSize", ptr %4, i32 0, i32 0
  %10 = load ptr, ptr %9, align 8, !tbaa !56
  %11 = getelementptr inbounds i32, ptr %10, i64 0
  %12 = load i32, ptr %11, align 4, !tbaa !8
  call void @_ZN2cv5Size_IiEC2Eii(ptr noundef nonnull align 4 dereferenceable(8) %2, i32 noundef %8, i32 noundef %12)
  %13 = load i64, ptr %2, align 4
  ret i64 %13
}

; Function Attrs: mustprogress uwtable
define hidden noundef i32 @_ZN15ContourScanner_9findNextXEiiRiS0_(ptr noundef nonnull align 8 dereferenceable(672) %0, i32 noundef %1, i32 noundef %2, ptr noundef nonnull align 4 dereferenceable(4) %3, ptr noundef nonnull align 4 dereferenceable(4) %4) #6 align 2 {
  %6 = alloca ptr, align 8
  %7 = alloca i32, align 4
  %8 = alloca i32, align 4
  %9 = alloca ptr, align 8
  %10 = alloca ptr, align 8
  %11 = alloca i32, align 4
  %12 = alloca %"class.cv::Size_", align 4
  store ptr %0, ptr %6, align 8, !tbaa !85
  store i32 %1, ptr %7, align 4, !tbaa !8
  store i32 %2, ptr %8, align 4, !tbaa !8
  store ptr %3, ptr %9, align 8, !tbaa !82
  store ptr %4, ptr %10, align 8, !tbaa !82
  %13 = load ptr, ptr %6, align 8
  call void @llvm.lifetime.start.p0(i64 4, ptr %11) #3
  call void @llvm.lifetime.start.p0(i64 8, ptr %12) #3
  %14 = getelementptr inbounds nuw %struct.ContourScanner_, ptr %13, i32 0, i32 0
  %15 = getelementptr inbounds nuw %"class.cv::Mat", ptr %14, i32 0, i32 10
  %16 = call i64 @_ZNK2cv7MatSizeclEv(ptr noundef nonnull align 8 dereferenceable(8) %15)
  store i64 %16, ptr %12, align 4
  %17 = getelementptr inbounds nuw %"class.cv::Size_", ptr %12, i32 0, i32 0
  %18 = load i32, ptr %17, align 4, !tbaa !77
  %19 = sub nsw i32 %18, 1
  call void @llvm.lifetime.end.p0(i64 8, ptr %12) #3
  store i32 %19, ptr %11, align 4, !tbaa !8
  %20 = call noundef zeroext i1 @_ZNK15ContourScanner_5isIntEv(ptr noundef nonnull align 8 dereferenceable(672) %13)
  br i1 %20, label %21, label %56

21:                                               ; preds = %5
  br label %22

22:                                               ; preds = %52, %21
  %23 = load i32, ptr %7, align 4, !tbaa !8
  %24 = load i32, ptr %11, align 4, !tbaa !8
  %25 = icmp slt i32 %23, %24
  br i1 %25, label %26, label %46

26:                                               ; preds = %22
  %27 = getelementptr inbounds nuw %struct.ContourScanner_, ptr %13, i32 0, i32 0
  %28 = load i32, ptr %8, align 4, !tbaa !8
  %29 = load i32, ptr %7, align 4, !tbaa !8
  %30 = call noundef nonnull align 4 dereferenceable(4) ptr @_ZN2cv3Mat2atIiEERT_ii(ptr noundef nonnull align 8 dereferenceable(96) %27, i32 noundef %28, i32 noundef %29)
  %31 = load i32, ptr %30, align 4, !tbaa !8
  %32 = load ptr, ptr %10, align 8, !tbaa !82
  store i32 %31, ptr %32, align 4, !tbaa !8
  %33 = load ptr, ptr %9, align 8, !tbaa !82
  %34 = load i32, ptr %33, align 4, !tbaa !8
  %35 = icmp eq i32 %31, %34
  br i1 %35, label %44, label %36

36:                                               ; preds = %26
  %37 = load ptr, ptr %10, align 8, !tbaa !82
  %38 = load i32, ptr %37, align 4, !tbaa !8
  %39 = and i32 %38, 1073741823
  %40 = load ptr, ptr %9, align 8, !tbaa !82
  %41 = load i32, ptr %40, align 4, !tbaa !8
  %42 = and i32 %41, 1073741823
  %43 = icmp eq i32 %39, %42
  br label %44

44:                                               ; preds = %36, %26
  %45 = phi i1 [ true, %26 ], [ %43, %36 ]
  br label %46

46:                                               ; preds = %44, %22
  %47 = phi i1 [ false, %22 ], [ %45, %44 ]
  br i1 %47, label %48, label %55

48:                                               ; preds = %46
  %49 = load ptr, ptr %10, align 8, !tbaa !82
  %50 = load i32, ptr %49, align 4, !tbaa !8
  %51 = load ptr, ptr %9, align 8, !tbaa !82
  store i32 %50, ptr %51, align 4, !tbaa !8
  br label %52

52:                                               ; preds = %48
  %53 = load i32, ptr %7, align 4, !tbaa !8
  %54 = add nsw i32 %53, 1
  store i32 %54, ptr %7, align 4, !tbaa !8
  br label %22, !llvm.loop !135

55:                                               ; preds = %46
  br label %79

56:                                               ; preds = %5
  br label %57

57:                                               ; preds = %75, %56
  %58 = load i32, ptr %7, align 4, !tbaa !8
  %59 = load i32, ptr %11, align 4, !tbaa !8
  %60 = icmp slt i32 %58, %59
  br i1 %60, label %61, label %72

61:                                               ; preds = %57
  %62 = getelementptr inbounds nuw %struct.ContourScanner_, ptr %13, i32 0, i32 0
  %63 = load i32, ptr %8, align 4, !tbaa !8
  %64 = load i32, ptr %7, align 4, !tbaa !8
  %65 = call noundef nonnull align 1 dereferenceable(1) ptr @_ZN2cv3Mat2atIaEERT_ii(ptr noundef nonnull align 8 dereferenceable(96) %62, i32 noundef %63, i32 noundef %64)
  %66 = load i8, ptr %65, align 1, !tbaa !91
  %67 = sext i8 %66 to i32
  %68 = load ptr, ptr %10, align 8, !tbaa !82
  store i32 %67, ptr %68, align 4, !tbaa !8
  %69 = load ptr, ptr %9, align 8, !tbaa !82
  %70 = load i32, ptr %69, align 4, !tbaa !8
  %71 = icmp eq i32 %67, %70
  br label %72

72:                                               ; preds = %61, %57
  %73 = phi i1 [ false, %57 ], [ %71, %61 ]
  br i1 %73, label %74, label %78

74:                                               ; preds = %72
  br label %75

75:                                               ; preds = %74
  %76 = load i32, ptr %7, align 4, !tbaa !8
  %77 = add nsw i32 %76, 1
  store i32 %77, ptr %7, align 4, !tbaa !8
  br label %57, !llvm.loop !136

78:                                               ; preds = %72
  br label %79

79:                                               ; preds = %78, %55
  %80 = load i32, ptr %7, align 4, !tbaa !8
  call void @llvm.lifetime.end.p0(i64 4, ptr %11) #3
  ret i32 %80
}