; Function Attrs: mustprogress nofree norecurse nosync nounwind memory(read, argmem: readwrite, inaccessiblemem: none) uwtable
define hidden noundef i32 @_ZN15ContourScanner_9findNextXEiiRiS0_(ptr noundef nonnull readonly align 8 captures(none) dereferenceable(672) %0, i32 noundef %1, i32 noundef %2, ptr noundef nonnull align 4 captures(none) dereferenceable(4) %3, ptr noundef nonnull writeonly align 4 captures(none) dereferenceable(4) %4) local_unnamed_addr #8 align 2 {
  %6 = getelementptr inbounds nuw i8, ptr %0, i64 64
  %7 = load ptr, ptr %6, align 8, !tbaa !16
  %8 = getelementptr inbounds nuw i8, ptr %7, i64 4
  %9 = load i32, ptr %8, align 4, !tbaa !17
  %10 = add i32 %9, -1
  %11 = getelementptr inbounds nuw i8, ptr %0, i64 132
  %12 = load i32, ptr %11, align 4, !tbaa !36
  %13 = icmp eq i32 %12, 4
  %14 = icmp slt i32 %1, %10
  br i1 %13, label %.preheader, label %.preheader25

.preheader25:                                     ; preds = %5
  br i1 %14, label %.lr.ph, label %.critedge

.lr.ph:                                           ; preds = %.preheader25
  %15 = getelementptr inbounds nuw i8, ptr %0, i64 16
  %16 = load ptr, ptr %15, align 8, !tbaa !74
  %17 = getelementptr inbounds nuw i8, ptr %0, i64 72
  %18 = load ptr, ptr %17, align 8, !tbaa !75
  %19 = load i64, ptr %18, align 8, !tbaa !76
  %20 = sext i32 %2 to i64
  %21 = mul i64 %19, %20
  %22 = getelementptr inbounds nuw i8, ptr %16, i64 %21
  %23 = sext i32 %1 to i64
  br label %42

.preheader:                                       ; preds = %5
  br i1 %14, label %.lr.ph31, label %.critedge

.lr.ph31:                                         ; preds = %.preheader
  %24 = getelementptr inbounds nuw i8, ptr %0, i64 16
  %25 = load ptr, ptr %24, align 8, !tbaa !74
  %26 = getelementptr inbounds nuw i8, ptr %0, i64 72
  %27 = load ptr, ptr %26, align 8, !tbaa !75
  %28 = load i64, ptr %27, align 8, !tbaa !76
  %29 = sext i32 %2 to i64
  %30 = mul i64 %28, %29
  %31 = getelementptr inbounds nuw i8, ptr %25, i64 %30
  %32 = sext i32 %1 to i64
  br label %33

33:                                               ; preds = %.lr.ph31, %.critedge2
  %indvars.iv38 = phi i64 [ %32, %.lr.ph31 ], [ %indvars.iv.next39, %.critedge2 ]
  %34 = getelementptr inbounds i32, ptr %31, i64 %indvars.iv38
  %35 = load i32, ptr %34, align 4, !tbaa !17
  store i32 %35, ptr %4, align 4, !tbaa !17
  %36 = load i32, ptr %3, align 4, !tbaa !17
  %37 = icmp eq i32 %35, %36
  br i1 %37, label %.critedge2, label %38

38:                                               ; preds = %33
  %39 = xor i32 %36, %35
  %40 = and i32 %39, 1073741823
  %41 = icmp eq i32 %40, 0
  br i1 %41, label %.critedge2, label %.critedge.loopexit.split.loop.exit

.critedge2:                                       ; preds = %33, %38
  store i32 %35, ptr %3, align 4, !tbaa !17
  %indvars.iv.next39 = add nsw i64 %indvars.iv38, 1
  %lftr.wideiv41 = trunc i64 %indvars.iv.next39 to i32
  %exitcond42.not = icmp eq i32 %10, %lftr.wideiv41
  br i1 %exitcond42.not, label %.critedge, label %33, !llvm.loop !132

42:                                               ; preds = %.lr.ph, %48
  %indvars.iv = phi i64 [ %23, %.lr.ph ], [ %indvars.iv.next, %48 ]
  %43 = getelementptr inbounds i8, ptr %22, i64 %indvars.iv
  %44 = load i8, ptr %43, align 1, !tbaa !69
  %45 = sext i8 %44 to i32
  store i32 %45, ptr %4, align 4, !tbaa !17
  %46 = load i32, ptr %3, align 4, !tbaa !17
  %47 = icmp eq i32 %46, %45
  br i1 %47, label %48, label %.critedge.loopexit43.split.loop.exit

48:                                               ; preds = %42
  %indvars.iv.next = add nsw i64 %indvars.iv, 1
  %lftr.wideiv = trunc i64 %indvars.iv.next to i32
  %exitcond.not = icmp eq i32 %10, %lftr.wideiv
  br i1 %exitcond.not, label %.critedge, label %42, !llvm.loop !133

.critedge.loopexit.split.loop.exit:               ; preds = %38
  %49 = trunc nsw i64 %indvars.iv38 to i32
  br label %.critedge

.critedge.loopexit43.split.loop.exit:             ; preds = %42
  %50 = trunc nsw i64 %indvars.iv to i32
  br label %.critedge

.critedge:                                        ; preds = %48, %.critedge2, %.critedge.loopexit43.split.loop.exit, %.critedge.loopexit.split.loop.exit, %.preheader25, %.preheader
  %.1 = phi i32 [ %1, %.preheader ], [ %1, %.preheader25 ], [ %49, %.critedge.loopexit.split.loop.exit ], [ %50, %.critedge.loopexit43.split.loop.exit ], [ %10, %.critedge2 ], [ %10, %48 ]
  ret i32 %.1
}